; Function Attrs: nounwind uwtable
define hidden void @je_malloc_write(ptr noundef %0) local_unnamed_addr #0 {
  %2 = load ptr, ptr @malloc_message, align 8, !tbaa !6
  %.not = icmp eq ptr %2, null
  br i1 %.not, label %4, label %3

3:                                                ; preds = %1
  tail call void %2(ptr noundef null, ptr noundef %0) #14
  br label %je_wrtmessage.exit

4:                                                ; preds = %1
  %5 = tail call i64 @strlen(ptr noundef nonnull dereferenceable(1) %0) #13
  br label %6

6:                                                ; preds = %6, %4
  %.014.i.i = phi i64 [ 0, %4 ], [ %11, %6 ]
  %7 = getelementptr inbounds nuw i8, ptr %0, i64 %.014.i.i
  %8 = sub i64 %5, %.014.i.i
  %9 = tail call i64 (i64, ...) @syscall(i64 noundef 1, i32 noundef 2, ptr noundef nonnull %7, i64 noundef %8) #14
  %10 = icmp sgt i64 %9, -1
  %11 = add i64 %9, %.014.i.i
  %12 = icmp ult i64 %11, %5
  %or.cond.i = and i1 %10, %12
  br i1 %or.cond.i, label %6, label %je_wrtmessage.exit, !llvm.loop !4

je_wrtmessage.exit:                               ; preds = %6, %3
  ret void
}